; Function Attrs: null_pointer_is_valid sspstrong uwtable
define internal i32 @dissect_dbcack(ptr noundef %0, ptr noundef %1, ptr noundef %2, ptr readnone captures(none) %3) #0 {
  %5 = tail call zeroext i16 @tvb_get_ntohs(ptr noundef %0, i32 noundef 0)
  %6 = getelementptr inbounds nuw i8, ptr %1, i64 8
  %7 = load ptr, ptr %6, align 8
  %8 = zext i16 %5 to i32
  tail call void (ptr, i32, ptr, ...) @col_add_fstr(ptr noundef %7, i32 noundef 25, ptr noundef nonnull @.str.2206, i32 noundef %8)
  %9 = load i32, ptr @proto_docsis_dbcack, align 4
  %10 = tail call ptr @proto_tree_add_item(ptr noundef %2, i32 noundef %9, ptr noundef %0, i32 noundef 0, i32 noundef -1, i32 noundef 0)
  %11 = load i32, ptr @ett_docsis_dbcack, align 4
  %12 = tail call ptr @proto_item_add_subtree(ptr noundef %10, i32 noundef %11)
  %13 = load i32, ptr @hf_docsis_mgt_tranid, align 4
  %14 = tail call ptr @proto_tree_add_item(ptr noundef %12, i32 noundef %13, ptr noundef %0, i32 noundef 0, i32 noundef 2, i32 noundef 0)
  %15 = tail call ptr @tvb_new_subset_remaining(ptr noundef %0, i32 noundef 2)
  %16 = load ptr, ptr @docsis_tlv_handle, align 8
  %17 = tail call i32 @call_dissector(ptr noundef %16, ptr noundef %15, ptr noundef %1, ptr noundef %12)
  %18 = tail call i32 @tvb_captured_length(ptr noundef %0)
  ret i32 %18
}